target datalayout = "e-m:e-p270:32:32-p271:32:32-p272:64:64-i64:64-i128:128-f80:128-n8:16:32:64-S128"
target triple = "x86_64-unknown-linux-gnu"

%union.anon = type { %struct.QTailQLink }
%struct.QTailQLink = type { ptr, ptr }
%struct.FWBootEntry = type { %union.anon.0, i32, ptr, ptr }
%union.anon.0 = type { %struct.QTailQLink }

@fw_boot_order = internal global %union.anon { %struct.QTailQLink { ptr null, ptr @fw_boot_order } }, align 8

; Function Attrs: nounwind sspstrong uwtable
define dso_local ptr @get_boot_device(i32 noundef %position) #0 {
entry:
  %position.addr = alloca i32, align 4
  %counter = alloca i32, align 4
  %i = alloca ptr, align 8
  %res = alloca ptr, align 8
  store i32 %position, ptr %position.addr, align 4
  store i32 0, ptr %counter, align 4
  store ptr null, ptr %i, align 8
  store ptr null, ptr %res, align 8
  %0 = load ptr, ptr @fw_boot_order, align 8
  %cmp = icmp eq ptr %0, null
  br i1 %cmp, label %if.end3, label %if.then

if.then:                                          ; preds = %entry
  %1 = load ptr, ptr @fw_boot_order, align 8
  store ptr %1, ptr %i, align 8
  br label %for.cond

for.cond:                                         ; preds = %for.inc, %if.then
  %2 = load ptr, ptr %i, align 8
  %tobool = icmp ne ptr %2, null
  br i1 %tobool, label %for.body, label %for.end

for.body:                                         ; preds = %for.cond
  %3 = load i32, ptr %counter, align 4
  %4 = load i32, ptr %position.addr, align 4
  %cmp1 = icmp eq i32 %3, %4
  br i1 %cmp1, label %if.then2, label %if.end

if.then2:                                         ; preds = %for.body
  %5 = load ptr, ptr %i, align 8
  %dev = getelementptr inbounds %struct.FWBootEntry, ptr %5, i32 0, i32 2
  %6 = load ptr, ptr %dev, align 8
  store ptr %6, ptr %res, align 8
  br label %for.end

if.end:                                           ; preds = %for.body
  %7 = load i32, ptr %counter, align 4
  %inc = add i32 %7, 1
  store i32 %inc, ptr %counter, align 4
  br label %for.inc

for.inc:                                          ; preds = %if.end
  %8 = load ptr, ptr %i, align 8
  %link = getelementptr inbounds %struct.FWBootEntry, ptr %8, i32 0, i32 0
  %9 = load ptr, ptr %link, align 8
  store ptr %9, ptr %i, align 8
  br label %for.cond, !llvm.loop !10

for.end:                                          ; preds = %if.then2, %for.cond
  br label %if.end3

if.end3:                                          ; preds = %for.end, %entry
  %10 = load ptr, ptr %res, align 8
  ret ptr %10
}