; Function Attrs: nofree norecurse nosync nounwind sspstrong memory(read, inaccessiblemem: none) uwtable
define dso_local ptr @get_boot_device(i32 noundef %position) local_unnamed_addr #6 {
entry:
  %0 = load ptr, ptr @fw_boot_order, align 8
  %cmp = icmp eq ptr %0, null
  br i1 %cmp, label %if.end3, label %for.body

for.body:                                         ; preds = %entry, %if.end
  %i.06 = phi ptr [ %2, %if.end ], [ %0, %entry ]
  %counter.05 = phi i32 [ %inc, %if.end ], [ 0, %entry ]
  %cmp1 = icmp eq i32 %counter.05, %position
  br i1 %cmp1, label %if.then2, label %if.end

if.then2:                                         ; preds = %for.body
  %dev = getelementptr inbounds nuw i8, ptr %i.06, i64 24
  %1 = load ptr, ptr %dev, align 8
  br label %if.end3

if.end:                                           ; preds = %for.body
  %inc = add i32 %counter.05, 1
  %2 = load ptr, ptr %i.06, align 8
  %tobool.not = icmp eq ptr %2, null
  br i1 %tobool.not, label %if.end3, label %for.body, !llvm.loop !10

if.end3:                                          ; preds = %if.end, %if.then2, %entry
  %res.0 = phi ptr [ null, %entry ], [ %1, %if.then2 ], [ null, %if.end ]
  ret ptr %res.0
}